; Function Attrs: mustprogress uwtable
define void @_ZN5boost3log11v2_mt_posix4core21set_thread_attributesERKNS1_13attribute_setE(ptr nocapture noundef nonnull readonly align 8 dereferenceable(8) %0, ptr noundef nonnull align 8 dereferenceable(8) %1) local_unnamed_addr #4 align 2 {
  %3 = alloca %"class.boost::log::v2_mt_posix::attribute_set", align 8
  %4 = load ptr, ptr %0, align 8, !tbaa !33
  %5 = getelementptr inbounds nuw i8, ptr %4, i64 104
  %6 = tail call noundef ptr @_ZN5boost6detail12get_tss_dataEPKv(ptr noundef nonnull align 8 dereferenceable(8) %5)
  %.not.i = icmp eq ptr %6, null
  br i1 %.not.i, label %7, label %_ZN5boost3log11v2_mt_posix4core14implementation15get_thread_dataEv.exit, !prof !76

7:                                                ; preds = %2
  tail call void @_ZN5boost3log11v2_mt_posix4core14implementation16init_thread_dataEv(ptr noundef nonnull align 8 dereferenceable(136) %4)
  %8 = tail call noundef ptr @_ZN5boost6detail12get_tss_dataEPKv(ptr noundef nonnull align 8 dereferenceable(8) %5)
  br label %_ZN5boost3log11v2_mt_posix4core14implementation15get_thread_dataEv.exit

_ZN5boost3log11v2_mt_posix4core14implementation15get_thread_dataEv.exit: ; preds = %2, %7
  %.0.i = phi ptr [ %8, %7 ], [ %6, %2 ]
  call void @_ZN5boost3log11v2_mt_posix13attribute_setC1ERKS2_(ptr noundef nonnull align 8 dereferenceable(8) %3, ptr noundef nonnull align 8 dereferenceable(8) %1)
  %9 = load ptr, ptr %.0.i, align 8, !tbaa !74
  %10 = load ptr, ptr %3, align 8, !tbaa !74
  store ptr %10, ptr %.0.i, align 8, !tbaa !74
  store ptr %9, ptr %3, align 8, !tbaa !74
  call void @_ZN5boost3log11v2_mt_posix13attribute_setD1Ev(ptr noundef nonnull align 8 dereferenceable(8) %3) #21
  ret void
}